; Function Attrs: nounwind sspstrong uwtable
define internal void @nvme_subsys_class_init(ptr noundef %oc, ptr readnone captures(none) %data) #0 {
entry:
  %call.i = tail call ptr @object_class_dynamic_cast_assert(ptr noundef %oc, ptr noundef nonnull @.str.8, ptr noundef nonnull @.str.10, i32 noundef 77, ptr noundef nonnull @__func__.DEVICE_CLASS) #7
  %categories = getelementptr inbounds nuw i8, ptr %call.i, i64 96
  %0 = load i64, ptr %categories, align 8
  %or.i = or i64 %0, 4
  store i64 %or.i, ptr %categories, align 8
  %realize = getelementptr inbounds nuw i8, ptr %call.i, i64 144
  store ptr @nvme_subsys_realize, ptr %realize, align 8
  %desc = getelementptr inbounds nuw i8, ptr %call.i, i64 112
  store ptr @.str.9, ptr %desc, align 8
  %hotpluggable = getelementptr inbounds nuw i8, ptr %call.i, i64 129
  store i8 0, ptr %hotpluggable, align 1
  tail call void @device_class_set_props(ptr noundef %call.i, ptr noundef nonnull @nvme_subsystem_props) #7
  ret void
}